target datalayout = "e-m:e-p270:32:32-p271:32:32-p272:64:64-i64:64-i128:128-f80:128-n8:16:32:64-S128"
target triple = "x86_64-pc-linux-gnu"

%struct.Aig_Obj_t_ = type { %union.anon, ptr, ptr, i64, i32, i32, %union.anon.0 }
%union.anon = type { ptr }
%union.anon.0 = type { ptr }
%struct.Aig_Man_t_ = type { ptr, ptr, ptr, ptr, ptr, ptr, ptr, %struct.Aig_Obj_t_, i32, i32, i32, i32, i32, i32, [7 x i32], i32, ptr, i32, ptr, i32, ptr, i32, i32, i32, ptr, i32, i32, i32, i32, i32, ptr, ptr, i32, ptr, ptr, i32, ptr, ptr, i32, i32, i32, ptr, ptr, ptr, ptr, ptr, ptr, ptr, ptr, ptr, ptr, ptr, ptr, ptr, ptr, i32, ptr, ptr, ptr, ptr, i32, i64, i64, i64, ptr, ptr }
%struct.Vec_Int_t_ = type { i32, i32, ptr }

; Function Attrs: inlinehint nounwind uwtable
define internal ptr @Aig_Regular(ptr noundef %0) #2 {
  %2 = alloca ptr, align 8
  store ptr %0, ptr %2, align 8, !tbaa !8
  %3 = load ptr, ptr %2, align 8, !tbaa !8
  %4 = ptrtoint ptr %3 to i64
  %5 = and i64 %4, -2
  %6 = inttoptr i64 %5 to ptr
  ret ptr %6
}

; Function Attrs: inlinehint nounwind uwtable
define internal ptr @Aig_ObjFanin1(ptr noundef %0) #2 {
  %2 = alloca ptr, align 8
  store ptr %0, ptr %2, align 8, !tbaa !8
  %3 = load ptr, ptr %2, align 8, !tbaa !8
  %4 = getelementptr inbounds nuw %struct.Aig_Obj_t_, ptr %3, i32 0, i32 2
  %5 = load ptr, ptr %4, align 8, !tbaa !31
  %6 = call ptr @Aig_Regular(ptr noundef %5)
  ret ptr %6
}

; Function Attrs: inlinehint nounwind uwtable
define internal ptr @Aig_ObjFanin0(ptr noundef %0) #2 {
  %2 = alloca ptr, align 8
  store ptr %0, ptr %2, align 8, !tbaa !8
  %3 = load ptr, ptr %2, align 8, !tbaa !8
  %4 = getelementptr inbounds nuw %struct.Aig_Obj_t_, ptr %3, i32 0, i32 1
  %5 = load ptr, ptr %4, align 8, !tbaa !30
  %6 = call ptr @Aig_Regular(ptr noundef %5)
  ret ptr %6
}

; Function Attrs: inlinehint nounwind uwtable
define internal void @Vec_IntWriteEntry(ptr noundef %0, i32 noundef %1, i32 noundef %2) #2 {
  %4 = alloca ptr, align 8
  %5 = alloca i32, align 4
  %6 = alloca i32, align 4
  store ptr %0, ptr %4, align 8, !tbaa !10
  store i32 %1, ptr %5, align 4, !tbaa !14
  store i32 %2, ptr %6, align 4, !tbaa !14
  %7 = load i32, ptr %6, align 4, !tbaa !14
  %8 = load ptr, ptr %4, align 8, !tbaa !10
  %9 = getelementptr inbounds nuw %struct.Vec_Int_t_, ptr %8, i32 0, i32 2
  %10 = load ptr, ptr %9, align 8, !tbaa !27
  %11 = load i32, ptr %5, align 4, !tbaa !14
  %12 = sext i32 %11 to i64
  %13 = getelementptr inbounds i32, ptr %10, i64 %12
  store i32 %7, ptr %13, align 4, !tbaa !14
  ret void
}

; Function Attrs: inlinehint nounwind uwtable
define internal i32 @Aig_ObjId(ptr noundef %0) #2 {
  %2 = alloca ptr, align 8
  store ptr %0, ptr %2, align 8, !tbaa !8
  %3 = load ptr, ptr %2, align 8, !tbaa !8
  %4 = getelementptr inbounds nuw %struct.Aig_Obj_t_, ptr %3, i32 0, i32 5
  %5 = load i32, ptr %4, align 4, !tbaa !29
  ret i32 %5
}

; Function Attrs: inlinehint nounwind uwtable
define internal i32 @Aig_ObjIsCi(ptr noundef %0) #2 {
  %2 = alloca ptr, align 8
  store ptr %0, ptr %2, align 8, !tbaa !8
  %3 = load ptr, ptr %2, align 8, !tbaa !8
  %4 = getelementptr inbounds nuw %struct.Aig_Obj_t_, ptr %3, i32 0, i32 3
  %5 = load i64, ptr %4, align 8
  %6 = and i64 %5, 7
  %7 = trunc i64 %6 to i32
  %8 = icmp eq i32 %7, 2
  %9 = zext i1 %8 to i32
  ret i32 %9
}

; Function Attrs: inlinehint nounwind uwtable
define internal void @Aig_ObjSetTravIdCurrent(ptr noundef %0, ptr noundef %1) #2 {
  %3 = alloca ptr, align 8
  %4 = alloca ptr, align 8
  store ptr %0, ptr %3, align 8, !tbaa !3
  store ptr %1, ptr %4, align 8, !tbaa !8
  %5 = load ptr, ptr %3, align 8, !tbaa !3
  %6 = getelementptr inbounds nuw %struct.Aig_Man_t_, ptr %5, i32 0, i32 38
  %7 = load i32, ptr %6, align 8, !tbaa !18
  %8 = load ptr, ptr %4, align 8, !tbaa !8
  %9 = getelementptr inbounds nuw %struct.Aig_Obj_t_, ptr %8, i32 0, i32 4
  store i32 %7, ptr %9, align 8, !tbaa !16
  ret void
}

; Function Attrs: inlinehint nounwind uwtable
define internal i32 @Aig_ObjIsTravIdCurrent(ptr noundef %0, ptr noundef %1) #2 {
  %3 = alloca ptr, align 8
  %4 = alloca ptr, align 8
  store ptr %0, ptr %3, align 8, !tbaa !3
  store ptr %1, ptr %4, align 8, !tbaa !8
  %5 = load ptr, ptr %4, align 8, !tbaa !8
  %6 = getelementptr inbounds nuw %struct.Aig_Obj_t_, ptr %5, i32 0, i32 4
  %7 = load i32, ptr %6, align 8, !tbaa !16
  %8 = load ptr, ptr %3, align 8, !tbaa !3
  %9 = getelementptr inbounds nuw %struct.Aig_Man_t_, ptr %8, i32 0, i32 38
  %10 = load i32, ptr %9, align 8, !tbaa !18
  %11 = icmp eq i32 %7, %10
  %12 = zext i1 %11 to i32
  ret i32 %12
}

; Function Attrs: nounwind uwtable
define void @Llb_Nonlin4SweepOrder_rec(ptr noundef %0, ptr noundef %1, ptr noundef %2, ptr noundef %3, i32 noundef %4) #0 {
  %6 = alloca ptr, align 8
  %7 = alloca ptr, align 8
  %8 = alloca ptr, align 8
  %9 = alloca ptr, align 8
  %10 = alloca i32, align 4
  %11 = alloca ptr, align 8
  %12 = alloca ptr, align 8
  %13 = alloca i32, align 4
  store ptr %0, ptr %6, align 8, !tbaa !3
  store ptr %1, ptr %7, align 8, !tbaa !8
  store ptr %2, ptr %8, align 8, !tbaa !10
  store ptr %3, ptr %9, align 8, !tbaa !12
  store i32 %4, ptr %10, align 4, !tbaa !14
  call void @llvm.lifetime.start.p0(i64 8, ptr %11) #9
  call void @llvm.lifetime.start.p0(i64 8, ptr %12) #9
  %14 = load ptr, ptr %6, align 8, !tbaa !3
  %15 = load ptr, ptr %7, align 8, !tbaa !8
  %16 = call i32 @Aig_ObjIsTravIdCurrent(ptr noundef %14, ptr noundef %15)
  %17 = icmp ne i32 %16, 0
  br i1 %17, label %18, label %19

18:                                               ; preds = %5
  store i32 1, ptr %13, align 4
  br label %91

19:                                               ; preds = %5
  %20 = load ptr, ptr %6, align 8, !tbaa !3
  %21 = load ptr, ptr %7, align 8, !tbaa !8
  call void @Aig_ObjSetTravIdCurrent(ptr noundef %20, ptr noundef %21)
  %22 = load ptr, ptr %7, align 8, !tbaa !8
  %23 = call i32 @Aig_ObjIsCi(ptr noundef %22)
  %24 = icmp ne i32 %23, 0
  br i1 %24, label %25, label %32

25:                                               ; preds = %19
  %26 = load ptr, ptr %8, align 8, !tbaa !10
  %27 = load ptr, ptr %7, align 8, !tbaa !8
  %28 = call i32 @Aig_ObjId(ptr noundef %27)
  %29 = load ptr, ptr %9, align 8, !tbaa !12
  %30 = load i32, ptr %29, align 4, !tbaa !14
  %31 = add nsw i32 %30, 1
  store i32 %31, ptr %29, align 4, !tbaa !14
  call void @Vec_IntWriteEntry(ptr noundef %26, i32 noundef %28, i32 noundef %30)
  store i32 1, ptr %13, align 4
  br label %91

32:                                               ; preds = %19
  %33 = load ptr, ptr %7, align 8, !tbaa !8
  %34 = call ptr @Aig_ObjFanin0(ptr noundef %33)
  store ptr %34, ptr %11, align 8, !tbaa !8
  %35 = load ptr, ptr %7, align 8, !tbaa !8
  %36 = call ptr @Aig_ObjFanin1(ptr noundef %35)
  store ptr %36, ptr %12, align 8, !tbaa !8
  %37 = load ptr, ptr %11, align 8, !tbaa !8
  %38 = getelementptr inbounds nuw %struct.Aig_Obj_t_, ptr %37, i32 0, i32 3
  %39 = load i64, ptr %38, align 8
  %40 = lshr i64 %39, 32
  %41 = and i64 %40, 16777215
  %42 = trunc i64 %41 to i32
  %43 = load ptr, ptr %12, align 8, !tbaa !8
  %44 = getelementptr inbounds nuw %struct.Aig_Obj_t_, ptr %43, i32 0, i32 3
  %45 = load i64, ptr %44, align 8
  %46 = lshr i64 %45, 32
  %47 = and i64 %46, 16777215
  %48 = trunc i64 %47 to i32
  %49 = icmp sgt i32 %42, %48
  br i1 %49, label %50, label %61

50:                                               ; preds = %32
  %51 = load ptr, ptr %6, align 8, !tbaa !3
  %52 = load ptr, ptr %11, align 8, !tbaa !8
  %53 = load ptr, ptr %8, align 8, !tbaa !10
  %54 = load ptr, ptr %9, align 8, !tbaa !12
  %55 = load i32, ptr %10, align 4, !tbaa !14
  call void @Llb_Nonlin4SweepOrder_rec(ptr noundef %51, ptr noundef %52, ptr noundef %53, ptr noundef %54, i32 noundef %55)
  %56 = load ptr, ptr %6, align 8, !tbaa !3
  %57 = load ptr, ptr %12, align 8, !tbaa !8
  %58 = load ptr, ptr %8, align 8, !tbaa !10
  %59 = load ptr, ptr %9, align 8, !tbaa !12
  %60 = load i32, ptr %10, align 4, !tbaa !14
  call void @Llb_Nonlin4SweepOrder_rec(ptr noundef %56, ptr noundef %57, ptr noundef %58, ptr noundef %59, i32 noundef %60)
  br label %72

61:                                               ; preds = %32
  %62 = load ptr, ptr %6, align 8, !tbaa !3
  %63 = load ptr, ptr %12, align 8, !tbaa !8
  %64 = load ptr, ptr %8, align 8, !tbaa !10
  %65 = load ptr, ptr %9, align 8, !tbaa !12
  %66 = load i32, ptr %10, align 4, !tbaa !14
  call void @Llb_Nonlin4SweepOrder_rec(ptr noundef %62, ptr noundef %63, ptr noundef %64, ptr noundef %65, i32 noundef %66)
  %67 = load ptr, ptr %6, align 8, !tbaa !3
  %68 = load ptr, ptr %11, align 8, !tbaa !8
  %69 = load ptr, ptr %8, align 8, !tbaa !10
  %70 = load ptr, ptr %9, align 8, !tbaa !12
  %71 = load i32, ptr %10, align 4, !tbaa !14
  call void @Llb_Nonlin4SweepOrder_rec(ptr noundef %67, ptr noundef %68, ptr noundef %69, ptr noundef %70, i32 noundef %71)
  br label %72

72:                                               ; preds = %61, %50
  %73 = load i32, ptr %10, align 4, !tbaa !14
  %74 = icmp ne i32 %73, 0
  br i1 %74, label %83, label %75

75:                                               ; preds = %72
  %76 = load ptr, ptr %7, align 8, !tbaa !8
  %77 = getelementptr inbounds nuw %struct.Aig_Obj_t_, ptr %76, i32 0, i32 3
  %78 = load i64, ptr %77, align 8
  %79 = lshr i64 %78, 4
  %80 = and i64 %79, 1
  %81 = trunc i64 %80 to i32
  %82 = icmp ne i32 %81, 0
  br i1 %82, label %83, label %90

83:                                               ; preds = %75, %72
  %84 = load ptr, ptr %8, align 8, !tbaa !10
  %85 = load ptr, ptr %7, align 8, !tbaa !8
  %86 = call i32 @Aig_ObjId(ptr noundef %85)
  %87 = load ptr, ptr %9, align 8, !tbaa !12
  %88 = load i32, ptr %87, align 4, !tbaa !14
  %89 = add nsw i32 %88, 1
  store i32 %89, ptr %87, align 4, !tbaa !14
  call void @Vec_IntWriteEntry(ptr noundef %84, i32 noundef %86, i32 noundef %88)
  br label %90

90:                                               ; preds = %83, %75
  store i32 0, ptr %13, align 4
  br label %91

91:                                               ; preds = %90, %25, %18
  call void @llvm.lifetime.end.p0(i64 8, ptr %12) #9
  call void @llvm.lifetime.end.p0(i64 8, ptr %11) #9
  %92 = load i32, ptr %13, align 4
  switch i32 %92, label %94 [
    i32 0, label %93
    i32 1, label %93
  ]

93:                                               ; preds = %91, %91
  ret void

94:                                               ; preds = %91
  unreachable
}