; Function Attrs: nofree nosync nounwind memory(readwrite, inaccessiblemem: none) uwtable
define void @Llb_Nonlin4SweepOrder_rec(ptr noundef %0, ptr noundef captures(none) %1, ptr noundef %2, ptr noundef %3, i32 noundef %4) local_unnamed_addr #0 {
  %6 = getelementptr i8, ptr %0, i64 312
  %.val = load i32, ptr %6, align 8, !tbaa !3
  %7 = getelementptr i8, ptr %1, i64 32
  %.val39 = load i32, ptr %7, align 8, !tbaa !21
  %.not = icmp eq i32 %.val39, %.val
  br i1 %.not, label %40, label %8

8:                                                ; preds = %5
  store i32 %.val, ptr %7, align 8, !tbaa !21
  %9 = getelementptr i8, ptr %1, i64 24
  %.val41 = load i64, ptr %9, align 8
  %10 = and i64 %.val41, 7
  %.not48 = icmp eq i64 %10, 2
  br i1 %.not48, label %.sink.split, label %11

11:                                               ; preds = %8
  %12 = getelementptr i8, ptr %1, i64 8
  %.val46 = load ptr, ptr %12, align 8, !tbaa !22
  %13 = ptrtoint ptr %.val46 to i64
  %14 = and i64 %13, -2
  %15 = inttoptr i64 %14 to ptr
  %16 = getelementptr i8, ptr %1, i64 16
  %.val47 = load ptr, ptr %16, align 8, !tbaa !23
  %17 = ptrtoint ptr %.val47 to i64
  %18 = and i64 %17, -2
  %19 = inttoptr i64 %18 to ptr
  %20 = getelementptr inbounds nuw i8, ptr %15, i64 24
  %21 = load i64, ptr %20, align 8
  %22 = lshr i64 %21, 32
  %23 = trunc nuw i64 %22 to i32
  %24 = and i32 %23, 16777215
  %25 = getelementptr inbounds nuw i8, ptr %19, i64 24
  %26 = load i64, ptr %25, align 8
  %27 = lshr i64 %26, 32
  %28 = trunc nuw i64 %27 to i32
  %29 = and i32 %28, 16777215
  %30 = icmp samesign ugt i32 %24, %29
  %. = select i1 %30, ptr %15, ptr %19
  %.57 = select i1 %30, ptr %19, ptr %15
  tail call void @Llb_Nonlin4SweepOrder_rec(ptr noundef nonnull %0, ptr noundef nonnull %., ptr noundef %2, ptr noundef %3, i32 noundef %4)
  tail call void @Llb_Nonlin4SweepOrder_rec(ptr noundef nonnull %0, ptr noundef nonnull %.57, ptr noundef %2, ptr noundef %3, i32 noundef %4)
  %.not37 = icmp eq i32 %4, 0
  br i1 %.not37, label %31, label %.sink.split

31:                                               ; preds = %11
  %32 = load i64, ptr %9, align 8
  %33 = and i64 %32, 16
  %.not38 = icmp eq i64 %33, 0
  br i1 %.not38, label %40, label %.sink.split

.sink.split:                                      ; preds = %11, %31, %8
  %34 = getelementptr i8, ptr %1, i64 36
  %.val43 = load i32, ptr %34, align 4, !tbaa !24
  %35 = load i32, ptr %3, align 4, !tbaa !25
  %36 = add nsw i32 %35, 1
  store i32 %36, ptr %3, align 4, !tbaa !25
  %37 = getelementptr i8, ptr %2, i64 8
  %.val45 = load ptr, ptr %37, align 8, !tbaa !26
  %38 = sext i32 %.val43 to i64
  %39 = getelementptr inbounds i32, ptr %.val45, i64 %38
  store i32 %35, ptr %39, align 4, !tbaa !25
  br label %40

40:                                               ; preds = %.sink.split, %31, %5
  ret void
}